; generated by Component: ARM Compiler 5.05 (build 41) Tool: ArmCC [4d0eb9]
; commandline ArmCC [--list --split_sections --debug -c --asm --interleave -o.\stm32303c_eval\mx_gpio.o --asm_dir=.\STM32303C_EVAL\ --list_dir=.\STM32303C_EVAL\ --depend=.\stm32303c_eval\mx_gpio.d --cpu=Cortex-M4.fp --apcs=interwork -O3 -I..\inc -I..\..\..\Libraries\CMSIS\Device\ST\\STM32F30x\Include -I..\..\..\Libraries\STM32_USB-FS-Device_Driver\inc -I..\..\..\Libraries\STM32F30x_StdPeriph_Driver\inc -I..\..\..\Utilities\STM32_EVAL -I..\..\..\Utilities\STM32_EVAL\Common -I..\..\..\Utilities\STM32_EVAL\STM32303C_EVAL -I..\..\..\Libraries\CMSIS\Include -IC:\Keil_v5\ARM\RV31\INC -IC:\Keil_v5\ARM\CMSIS\Include -IC:\Keil_v5\ARM\Inc\ST\STM32L1xx -D__MICROLIB -DUSE_STDPERIPH_DRIVER -DSTM32F30X -DUSE_STM32303C_EVAL ..\src\mx_gpio.c]
                          THUMB

                          AREA ||i.mx_pinout_config||, CODE, READONLY, ALIGN=2

                  mx_pinout_config PROC
;;;38     
;;;39     void mx_pinout_config(void) {
000000  e92d47fc          PUSH     {r2-r10,lr}
;;;40     	/* Private typedef ---------------------------------------------------------*/
;;;41     	GPIO_InitTypeDef GPIO_InitStruct;
;;;42     
;;;43     
;;;44     	/** TIM1 GPIO Configuration	
;;;45     		 PE9	 ------> TIM1_CH1
;;;46     		 PE11	 ------> TIM1_CH2
;;;47     	*/
;;;48     /*
;;;49     
;;;50     	//Enable or disable the AHB peripheral clock 
;;;51     	RCC_AHBPeriphClockCmd(RCC_AHBPeriph_GPIOE, ENABLE);
;;;52     
;;;53     
;;;54     	//!!! GPIO_Init is commented because some parameters are missing
;;;55     	GPIO_InitStruct.GPIO_Pin = GPIO_Pin_9;
;;;56     	GPIO_InitStruct.GPIO_Mode = GPIO_Mode_AF;
;;;57     	GPIO_InitStruct.GPIO_OType = GPIO_OType_PP;
;;;58     	GPIO_InitStruct.GPIO_PuPd = GPIO_PuPd_NOPULL;
;;;59     	GPIO_InitStruct.GPIO_Speed = GPIO_Speed_2MHz;
;;;60     	GPIO_Init(GPIOE, &GPIO_InitStruct);
;;;61     
;;;62     
;;;63     	//!!! GPIO_Init is commented because some parameters are missing
;;;64     	GPIO_InitStruct.GPIO_Pin = GPIO_Pin_11;
;;;65     	GPIO_InitStruct.GPIO_Mode = GPIO_Mode_AF;
;;;66     	GPIO_InitStruct.GPIO_OType = GPIO_OType_PP;
;;;67     	GPIO_InitStruct.GPIO_PuPd = GPIO_PuPd_NOPULL;
;;;68     	GPIO_InitStruct.GPIO_Speed = GPIO_Speed_2MHz;
;;;69     	GPIO_Init(GPIOE, &GPIO_InitStruct);
;;;70     
;;;71     	//Configure GPIO pin alternate function 
;;;72     	GPIO_PinAFConfig(GPIOE, GPIO_PinSource9, GPIO_AF_2);
;;;73     
;;;74     	//Configure GPIO pin alternate function 
;;;75     	GPIO_PinAFConfig(GPIOE, GPIO_PinSource11, GPIO_AF_2);
;;;76     
;;;77     
;;;78     	// TIM2 GPIO Configuration	
;;;79     		// PA0	 ------> TIM2_CH1_ETR
;;;80     		// PA1	 ------> TIM2_CH2
;;;81     	
;;;82     
;;;83     
;;;84     	//Enable or disable the AHB peripheral clock 
;;;85     	RCC_AHBPeriphClockCmd(RCC_AHBPeriph_GPIOA, ENABLE);
;;;86     
;;;87     
;;;88     	//!!! GPIO_Init is commented because some parameters are missing
;;;89     	GPIO_InitStruct.GPIO_Pin = GPIO_Pin_0;
;;;90     	GPIO_InitStruct.GPIO_Mode = GPIO_Mode_AF;
;;;91     	GPIO_InitStruct.GPIO_OType = GPIO_OType_PP;
;;;92     	GPIO_InitStruct.GPIO_PuPd = GPIO_PuPd_NOPULL;
;;;93     	GPIO_InitStruct.GPIO_Speed = GPIO_Speed_2MHz;
;;;94     	GPIO_Init(GPIOA, &GPIO_InitStruct);
;;;95     
;;;96     
;;;97     	//!!! GPIO_Init is commented because some parameters are missing
;;;98     	GPIO_InitStruct.GPIO_Pin = GPIO_Pin_1;
;;;99     	GPIO_InitStruct.GPIO_Mode = GPIO_Mode_AF;
;;;100    	GPIO_InitStruct.GPIO_OType = GPIO_OType_PP;
;;;101    	GPIO_InitStruct.GPIO_PuPd = GPIO_PuPd_NOPULL;
;;;102    	GPIO_InitStruct.GPIO_Speed = GPIO_Speed_2MHz;
;;;103    	GPIO_Init(GPIOA, &GPIO_InitStruct);
;;;104    
;;;105    	//Configure GPIO pin alternate function 
;;;106    	GPIO_PinAFConfig(GPIOA, GPIO_PinSource0, GPIO_AF_1);
;;;107    
;;;108    	//Configure GPIO pin alternate function 
;;;109    	GPIO_PinAFConfig(GPIOA, GPIO_PinSource1, GPIO_AF_1);
;;;110    
;;;111    
;;;112    	// TIM3 GPIO Configuration	
;;;113    		// PE2	 ------> TIM3_CH1
;;;114    		// PE3	 ------> TIM3_CH2
;;;115    	
;;;116    
;;;117    
;;;118    	//Enable or disable the AHB peripheral clock 
;;;119    	RCC_AHBPeriphClockCmd(RCC_AHBPeriph_GPIOE, ENABLE);
;;;120    
;;;121    
;;;122    	//!!! GPIO_Init is commented because some parameters are missing
;;;123    	GPIO_InitStruct.GPIO_Pin = GPIO_Pin_2;
;;;124    	GPIO_InitStruct.GPIO_Mode = GPIO_Mode_AF;
;;;125    	GPIO_InitStruct.GPIO_OType = GPIO_OType_PP;
;;;126    	GPIO_InitStruct.GPIO_PuPd = GPIO_PuPd_UP; //NOPULL
;;;127    	GPIO_InitStruct.GPIO_Speed = GPIO_Speed_2MHz;
;;;128    	GPIO_Init(GPIOE, &GPIO_InitStruct);
;;;129    
;;;130    
;;;131    	//!!! GPIO_Init is commented because some parameters are missing
;;;132    	GPIO_InitStruct.GPIO_Pin = GPIO_Pin_3;
;;;133    	GPIO_InitStruct.GPIO_Mode = GPIO_Mode_AF;
;;;134    	GPIO_InitStruct.GPIO_OType = GPIO_OType_PP;
;;;135    	GPIO_InitStruct.GPIO_PuPd = GPIO_PuPd_UP; //NOPULL
;;;136    	GPIO_InitStruct.GPIO_Speed = GPIO_Speed_2MHz;
;;;137    	GPIO_Init(GPIOE, &GPIO_InitStruct);
;;;138    
;;;139    	//Configure GPIO pin alternate function 
;;;140    	GPIO_PinAFConfig(GPIOE, GPIO_PinSource2, GPIO_AF_2);
;;;141    
;;;142    	//Configure GPIO pin alternate function 
;;;143    	GPIO_PinAFConfig(GPIOE, GPIO_PinSource3, GPIO_AF_2);
;;;144    
;;;145    
;;;146    	// TIM4 GPIO Configuration	
;;;147    	// PD12	 ------> TIM4_CH1
;;;148    		// PD13	 ------> TIM4_CH2
;;;149    	
;;;150    
;;;151    
;;;152    	//Enable or disable the AHB peripheral clock 
;;;153    	RCC_AHBPeriphClockCmd(RCC_AHBPeriph_GPIOD, ENABLE);
;;;154    
;;;155    
;;;156    	//!!! GPIO_Init is commented because some parameters are missing
;;;157    	GPIO_InitStruct.GPIO_Pin = GPIO_Pin_12;
;;;158    	GPIO_InitStruct.GPIO_Mode = GPIO_Mode_AF;
;;;159    	GPIO_InitStruct.GPIO_OType = GPIO_OType_PP;
;;;160    	GPIO_InitStruct.GPIO_PuPd = GPIO_PuPd_NOPULL;
;;;161    	GPIO_InitStruct.GPIO_Speed = GPIO_Speed_2MHz;
;;;162    	GPIO_Init(GPIOD, &GPIO_InitStruct);
;;;163    
;;;164    
;;;165    	//!!! GPIO_Init is commented because some parameters are missing
;;;166    	GPIO_InitStruct.GPIO_Pin = GPIO_Pin_13;
;;;167    	GPIO_InitStruct.GPIO_Mode = GPIO_Mode_AF;
;;;168    	GPIO_InitStruct.GPIO_OType = GPIO_OType_PP;
;;;169    	GPIO_InitStruct.GPIO_PuPd = GPIO_PuPd_NOPULL;
;;;170    	GPIO_InitStruct.GPIO_Speed = GPIO_Speed_2MHz;
;;;171    	GPIO_Init(GPIOD, &GPIO_InitStruct);
;;;172    
;;;173    	//Configure GPIO pin alternate function 
;;;174    	GPIO_PinAFConfig(GPIOD, GPIO_PinSource12, GPIO_AF_2);
;;;175    
;;;176    	//Configure GPIO pin alternate function 
;;;177    	GPIO_PinAFConfig(GPIOD, GPIO_PinSource13, GPIO_AF_2);
;;;178    
;;;179    
;;;180    	// TIM8 GPIO Configuration	
;;;181    	//	 PC6	 ------> TIM8_CH1
;;;182    	//	 PC7	 ------> TIM8_CH2
;;;183    	
;;;184    
;;;185    
;;;186    	//Enable or disable the AHB peripheral clock 
;;;187    	RCC_AHBPeriphClockCmd(RCC_AHBPeriph_GPIOC, ENABLE);
;;;188    
;;;189    
;;;190    	//!!! GPIO_Init is commented because some parameters are missing
;;;191    	GPIO_InitStruct.GPIO_Pin = GPIO_Pin_6;
;;;192    	GPIO_InitStruct.GPIO_Mode = GPIO_Mode_AF;
;;;193    	GPIO_InitStruct.GPIO_OType = GPIO_OType_PP;
;;;194    	GPIO_InitStruct.GPIO_PuPd = GPIO_PuPd_NOPULL;
;;;195    	GPIO_InitStruct.GPIO_Speed = GPIO_Speed_2MHz;
;;;196    	GPIO_Init(GPIOC, &GPIO_InitStruct);
;;;197    
;;;198    
;;;199    	//!!! GPIO_Init is commented because some parameters are missing
;;;200    	GPIO_InitStruct.GPIO_Pin = GPIO_Pin_7;
;;;201    	GPIO_InitStruct.GPIO_Mode = GPIO_Mode_AF;
;;;202    	GPIO_InitStruct.GPIO_OType = GPIO_OType_PP;
;;;203    	GPIO_InitStruct.GPIO_PuPd = GPIO_PuPd_NOPULL;
;;;204    	GPIO_InitStruct.GPIO_Speed = GPIO_Speed_2MHz;
;;;205    	GPIO_Init(GPIOC, &GPIO_InitStruct);
;;;206    
;;;207    	//Configure GPIO pin alternate function 
;;;208    	GPIO_PinAFConfig(GPIOC, GPIO_PinSource6, GPIO_AF_4);
;;;209    
;;;210    	//Configure GPIO pin alternate function 
;;;211    	GPIO_PinAFConfig(GPIOC, GPIO_PinSource7, GPIO_AF_4);
;;;212    */
;;;213    
;;;214    	/** Configure pins as GPIO
;;;215    		 PE4	 ------> GPIO_Output
;;;216    		 PE8	 ------> GPIO_Output ок LD4
;;;217    		 PE10	 ------> GPIO_Output
;;;218    		 PE12	 ------> GPIO_Output
;;;219    		 PE13	 ------> GPIO_Output
;;;220    		 PE14	 ------> GPIO_Output ок LD8
;;;221    		 PE15	 ------> GPIO_Output ок LD6
;;;222    		 PD8	 ------> GPIO_Input
;;;223    		 PD9	 ------> GPIO_Input
;;;224    		 PD10	 ------> GPIO_Input
;;;225    		 PD11	 ------> GPIO_Input
;;;226    		 PD14	 ------> GPIO_Input
;;;227    		 PA13	 ------> GPIO_Output
;;;228    		 PF6	 ------> GPIO_Output
;;;229    		 PA14	 ------> GPIO_Output
;;;230    		 PA15	 ------> GPIO_Output
;;;231    		 PC10	 ------> GPIO_Output
;;;232    		 PC11	 ------> GPIO_Output
;;;233    		 PC12	 ------> GPIO_Output
;;;234    		 PD0	 ------> GPIO_Output
;;;235    		 PD1	 ------> GPIO_Output
;;;236    		 PD2	 ------> GPIO_Output
;;;237    		 PD3	 ------> GPIO_Output
;;;238    		 PD4	 ------> GPIO_Output
;;;239    		 PD5	 ------> GPIO_Output
;;;240    		 PD6	 ------> GPIO_Output
;;;241    		 PD7	 ------> GPIO_Output
;;;242    		 PB3	 ------> GPIO_Output
;;;243    		 PB4	 ------> GPIO_Output
;;;244    		 PB5	 ------> GPIO_Output
;;;245    		 PE0	 ------> GPIO_Output
;;;246         PC9	 ------> GPIO_Output
;;;247    		 
;;;248    		 энкодер для оси #6
;;;249    		 PF9   ------> GPIO_Input
;;;250    		 PF10  ------> GPIO_Input
;;;251    		 
;;;252    		 энкодеры:
;;;253    		 PE2	 ------> TIM3_CH1
;;;254    		 PE3	 ------> TIM3_CH2
;;;255    		 
;;;256    		 PC6	 ------> TIM8_CH1
;;;257    		 PC7	 ------> TIM8_CH2
;;;258    		 
;;;259    		 PD12	 ------> TIM4_CH1
;;;260    		 PD13	 ------> TIM4_CH2
;;;261    		 
;;;262    		 PA0	 ------> TIM2_CH1_ETR
;;;263    		 PA1	 ------> TIM2_CH2
;;;264    		 
;;;265    		 PE9	 ------> TIM1_CH1
;;;266    		 PE11	 ------> TIM1_CH2
;;;267    	*/
;;;268    
;;;269    
;;;270    	/*Enable or disable the AHB peripheral clock */
;;;271    	RCC_AHBPeriphClockCmd(RCC_AHBPeriph_GPIOE|RCC_AHBPeriph_GPIOD|RCC_AHBPeriph_GPIOA|RCC_AHBPeriph_GPIOF|RCC_AHBPeriph_GPIOC|RCC_AHBPeriph_GPIOB, ENABLE);
000004  2101              MOVS     r1,#1
000006  f44f00fc          MOV      r0,#0x7e0000
00000a  f7fffffe          BL       RCC_AHBPeriphClockCmd
;;;272    
;;;273    	/*Configure GPIO pin */
;;;274    	GPIO_InitStruct.GPIO_Pin = GPIO_Pin_4|GPIO_Pin_8|GPIO_Pin_10|GPIO_Pin_12|GPIO_Pin_13|GPIO_Pin_14|GPIO_Pin_15|GPIO_Pin_0;
;;;275    	GPIO_InitStruct.GPIO_Mode = GPIO_Mode_OUT;
00000e  2501              MOVS     r5,#1
000010  f88d5004          STRB     r5,[sp,#4]
;;;276    	GPIO_InitStruct.GPIO_OType = GPIO_OType_PP;
000014  2400              MOVS     r4,#0
000016  f24f5011          MOV      r0,#0xf511            ;274
00001a  f88d4006          STRB     r4,[sp,#6]
;;;277    	GPIO_InitStruct.GPIO_PuPd = GPIO_PuPd_NOPULL;
;;;278    	GPIO_InitStruct.GPIO_Speed = GPIO_Speed_2MHz;
;;;279    	GPIO_Init(GPIOE, &GPIO_InitStruct);
00001e  4f4e              LDR      r7,|L1.344|
000020  9000              STR      r0,[sp,#0]            ;275
000022  f88d4007          STRB     r4,[sp,#7]            ;277
000026  2602              MOVS     r6,#2                 ;278
000028  f88d6005          STRB     r6,[sp,#5]            ;278
00002c  4669              MOV      r1,sp
00002e  4638              MOV      r0,r7
000030  f7fffffe          BL       GPIO_Init
;;;280    
;;;281    	/*Configure GPIO pin */
;;;282    	GPIO_InitStruct.GPIO_Pin = GPIO_Pin_12|GPIO_Pin_13;
000034  f44f5040          MOV      r0,#0x3000
;;;283    	GPIO_InitStruct.GPIO_Mode = GPIO_Mode_IN;
;;;284    	GPIO_InitStruct.GPIO_PuPd = GPIO_PuPd_NOPULL;
;;;285    	GPIO_Init(GPIOD, &GPIO_InitStruct);
000038  f8dfa120          LDR      r10,|L1.348|
00003c  9000              STR      r0,[sp,#0]            ;283
00003e  f88d4004          STRB     r4,[sp,#4]            ;283
000042  f88d4007          STRB     r4,[sp,#7]            ;284
000046  4669              MOV      r1,sp
000048  4650              MOV      r0,r10
00004a  f7fffffe          BL       GPIO_Init
;;;286    	
;;;287    	GPIO_InitStruct.GPIO_Pin = GPIO_Pin_8|GPIO_Pin_9|GPIO_Pin_10|GPIO_Pin_11|GPIO_Pin_14;
00004e  f44f409e          MOV      r0,#0x4f00
;;;288    	GPIO_InitStruct.GPIO_Mode = GPIO_Mode_IN;
000052  9000              STR      r0,[sp,#0]
000054  f88d4004          STRB     r4,[sp,#4]
;;;289    	GPIO_InitStruct.GPIO_PuPd = GPIO_PuPd_UP;
000058  f88d5007          STRB     r5,[sp,#7]
;;;290    	GPIO_Init(GPIOD, &GPIO_InitStruct);
00005c  4669              MOV      r1,sp
00005e  4650              MOV      r0,r10
000060  f7fffffe          BL       GPIO_Init
;;;291    	
;;;292    	GPIO_InitStruct.GPIO_Pin = GPIO_Pin_9|GPIO_Pin_10;
000064  f44f60c0          MOV      r0,#0x600
;;;293    	GPIO_InitStruct.GPIO_Mode = GPIO_Mode_IN;
;;;294    	GPIO_InitStruct.GPIO_PuPd = GPIO_PuPd_NOPULL;
;;;295    	GPIO_Init(GPIOF, &GPIO_InitStruct);
000068  f8df90f4          LDR      r9,|L1.352|
00006c  9000              STR      r0,[sp,#0]            ;293
00006e  f88d4004          STRB     r4,[sp,#4]            ;293
000072  f88d4007          STRB     r4,[sp,#7]            ;294
000076  4669              MOV      r1,sp
000078  4648              MOV      r0,r9
00007a  f7fffffe          BL       GPIO_Init
;;;296    	
;;;297    	GPIO_InitStruct.GPIO_Pin = GPIO_Pin_2|GPIO_Pin_3;
00007e  200c              MOVS     r0,#0xc
;;;298    	GPIO_InitStruct.GPIO_Mode = GPIO_Mode_IN;
000080  9000              STR      r0,[sp,#0]
000082  f88d4004          STRB     r4,[sp,#4]
;;;299    	GPIO_InitStruct.GPIO_PuPd = GPIO_PuPd_NOPULL;
000086  f88d4007          STRB     r4,[sp,#7]
;;;300    	GPIO_Init(GPIOE, &GPIO_InitStruct);
00008a  4669              MOV      r1,sp
00008c  4638              MOV      r0,r7
00008e  f7fffffe          BL       GPIO_Init
;;;301    	
;;;302    	GPIO_InitStruct.GPIO_Pin = GPIO_Pin_6|GPIO_Pin_7;
000092  20c0              MOVS     r0,#0xc0
;;;303    	GPIO_InitStruct.GPIO_Mode = GPIO_Mode_IN;
;;;304    	GPIO_InitStruct.GPIO_PuPd = GPIO_PuPd_NOPULL;
;;;305    	GPIO_Init(GPIOC, &GPIO_InitStruct);
000094  f8df80cc          LDR      r8,|L1.356|
000098  9000              STR      r0,[sp,#0]            ;303
00009a  f88d4004          STRB     r4,[sp,#4]            ;303
00009e  f88d4007          STRB     r4,[sp,#7]            ;304
0000a2  4669              MOV      r1,sp
0000a4  4640              MOV      r0,r8
0000a6  f7fffffe          BL       GPIO_Init
;;;306    	
;;;307    	GPIO_InitStruct.GPIO_Pin = GPIO_Pin_0|GPIO_Pin_1|GPIO_Pin_4|GPIO_Pin_5|GPIO_Pin_6|GPIO_Pin_7;
0000aa  20f3              MOVS     r0,#0xf3
;;;308    	GPIO_InitStruct.GPIO_Mode = GPIO_Mode_IN;
0000ac  9000              STR      r0,[sp,#0]
0000ae  f88d4004          STRB     r4,[sp,#4]
;;;309    	GPIO_InitStruct.GPIO_PuPd = GPIO_PuPd_NOPULL;
;;;310    	GPIO_Init(GPIOA, &GPIO_InitStruct);
0000b2  f04f4790          MOV      r7,#0x48000000
0000b6  f88d4007          STRB     r4,[sp,#7]            ;309
0000ba  4669              MOV      r1,sp
0000bc  4638              MOV      r0,r7
0000be  f7fffffe          BL       GPIO_Init
;;;311    
;;;312    	/*Configure GPIO pin */
;;;313    	GPIO_InitStruct.GPIO_Pin = GPIO_Pin_13|GPIO_Pin_14|GPIO_Pin_15;
;;;314    	GPIO_InitStruct.GPIO_Mode = GPIO_Mode_OUT;
0000c2  f88d5004          STRB     r5,[sp,#4]
0000c6  f44f4060          MOV      r0,#0xe000            ;313
;;;315    	GPIO_InitStruct.GPIO_OType = GPIO_OType_PP;
0000ca  f88d4006          STRB     r4,[sp,#6]
0000ce  9000              STR      r0,[sp,#0]            ;314
;;;316    	GPIO_InitStruct.GPIO_PuPd = GPIO_PuPd_NOPULL;
0000d0  f88d4007          STRB     r4,[sp,#7]
;;;317    	GPIO_InitStruct.GPIO_Speed = GPIO_Speed_2MHz;
0000d4  f88d6005          STRB     r6,[sp,#5]
;;;318    	GPIO_Init(GPIOA, &GPIO_InitStruct);
0000d8  4669              MOV      r1,sp
0000da  4638              MOV      r0,r7
0000dc  f7fffffe          BL       GPIO_Init
;;;319    
;;;320    	/*Configure GPIO pin */
;;;321    	GPIO_InitStruct.GPIO_Pin = GPIO_Pin_6;
;;;322    	GPIO_InitStruct.GPIO_Mode = GPIO_Mode_OUT;
0000e0  f88d5004          STRB     r5,[sp,#4]
0000e4  2040              MOVS     r0,#0x40              ;321
;;;323    	GPIO_InitStruct.GPIO_OType = GPIO_OType_PP;
0000e6  f88d4006          STRB     r4,[sp,#6]
0000ea  9000              STR      r0,[sp,#0]            ;322
;;;324    	GPIO_InitStruct.GPIO_PuPd = GPIO_PuPd_NOPULL;
0000ec  f88d4007          STRB     r4,[sp,#7]
;;;325    	GPIO_InitStruct.GPIO_Speed = GPIO_Speed_2MHz;
0000f0  f88d6005          STRB     r6,[sp,#5]
;;;326    	GPIO_Init(GPIOF, &GPIO_InitStruct);
0000f4  4669              MOV      r1,sp
0000f6  4648              MOV      r0,r9
0000f8  f7fffffe          BL       GPIO_Init
;;;327    
;;;328    	/*Configure GPIO pin */
;;;329    	GPIO_InitStruct.GPIO_Pin = GPIO_Pin_10|GPIO_Pin_11|GPIO_Pin_12|GPIO_Pin_9;
;;;330    	GPIO_InitStruct.GPIO_Mode = GPIO_Mode_OUT;
0000fc  f88d5004          STRB     r5,[sp,#4]
000100  f44f50f0          MOV      r0,#0x1e00            ;329
;;;331    	GPIO_InitStruct.GPIO_OType = GPIO_OType_PP;
000104  f88d4006          STRB     r4,[sp,#6]
000108  9000              STR      r0,[sp,#0]            ;330
;;;332    	GPIO_InitStruct.GPIO_PuPd = GPIO_PuPd_NOPULL;
00010a  f88d4007          STRB     r4,[sp,#7]
;;;333    	GPIO_InitStruct.GPIO_Speed = GPIO_Speed_2MHz;
00010e  f88d6005          STRB     r6,[sp,#5]
;;;334    	GPIO_Init(GPIOC, &GPIO_InitStruct);
000112  4669              MOV      r1,sp
000114  4640              MOV      r0,r8
000116  f7fffffe          BL       GPIO_Init
;;;335    
;;;336    	/*Configure GPIO pin */
;;;337    	GPIO_InitStruct.GPIO_Pin = GPIO_Pin_0|GPIO_Pin_1|GPIO_Pin_2|GPIO_Pin_3|GPIO_Pin_4|GPIO_Pin_5|GPIO_Pin_6|GPIO_Pin_7;
;;;338    	GPIO_InitStruct.GPIO_Mode = GPIO_Mode_OUT;
00011a  f88d5004          STRB     r5,[sp,#4]
00011e  20ff              MOVS     r0,#0xff              ;337
;;;339    	GPIO_InitStruct.GPIO_OType = GPIO_OType_PP;
000120  f88d4006          STRB     r4,[sp,#6]
000124  9000              STR      r0,[sp,#0]            ;338
;;;340    	GPIO_InitStruct.GPIO_PuPd = GPIO_PuPd_NOPULL;
000126  f88d4007          STRB     r4,[sp,#7]
;;;341    	GPIO_InitStruct.GPIO_Speed = GPIO_Speed_2MHz;
00012a  f88d6005          STRB     r6,[sp,#5]
;;;342    	GPIO_Init(GPIOD, &GPIO_InitStruct);
00012e  4669              MOV      r1,sp
000130  4650              MOV      r0,r10
000132  f7fffffe          BL       GPIO_Init
;;;343    
;;;344    	/*Configure GPIO pin */
;;;345    	GPIO_InitStruct.GPIO_Pin = GPIO_Pin_3|GPIO_Pin_4|GPIO_Pin_5;
;;;346    	GPIO_InitStruct.GPIO_Mode = GPIO_Mode_OUT;
000136  f88d5004          STRB     r5,[sp,#4]
00013a  2038              MOVS     r0,#0x38              ;345
;;;347    	GPIO_InitStruct.GPIO_OType = GPIO_OType_PP;
00013c  f88d4006          STRB     r4,[sp,#6]
000140  9000              STR      r0,[sp,#0]            ;346
;;;348    	GPIO_InitStruct.GPIO_PuPd = GPIO_PuPd_NOPULL;
000142  f88d4007          STRB     r4,[sp,#7]
;;;349    	GPIO_InitStruct.GPIO_Speed = GPIO_Speed_2MHz;
000146  f88d6005          STRB     r6,[sp,#5]
;;;350    	GPIO_Init(GPIOB, &GPIO_InitStruct);
00014a  4669              MOV      r1,sp
00014c  4806              LDR      r0,|L1.360|
00014e  f7fffffe          BL       GPIO_Init
;;;351    }
000152  e8bd87fc          POP      {r2-r10,pc}
;;;352    
                          ENDP

000156  0000              DCW      0x0000
                  |L1.344|
                          DCD      0x48001000
                  |L1.348|
                          DCD      0x48000c00
                  |L1.352|
                          DCD      0x48001400
                  |L1.356|
                          DCD      0x48000800
                  |L1.360|
                          DCD      0x48000400

;*** Start embedded assembler ***

#line 1 "..\\src\\mx_gpio.c"
	AREA ||.rev16_text||, CODE
	THUMB
	EXPORT |__asm___9_mx_gpio_c_6b402b64____REV16|
#line 114 "..\\..\\..\\Libraries\\CMSIS\\Include\\core_cmInstr.h"
|__asm___9_mx_gpio_c_6b402b64____REV16| PROC
#line 115

 rev16 r0, r0
 bx lr
	ENDP
	AREA ||.revsh_text||, CODE
	THUMB
	EXPORT |__asm___9_mx_gpio_c_6b402b64____REVSH|
#line 128
|__asm___9_mx_gpio_c_6b402b64____REVSH| PROC
#line 129

 revsh r0, r0
 bx lr
	ENDP

;*** End   embedded assembler ***
